target datalayout = "e-m:e-p270:32:32-p271:32:32-p272:64:64-i64:64-i128:128-f80:128-n8:16:32:64-S128"
target triple = "x86_64-pc-linux-gnu"

%struct.polymorphic_actuals = type { i32, i32, i32, i32 }

@.str.1 = private unnamed_addr constant [10 x i8] c"funcapi.c\00", align 1
@.str.30 = private unnamed_addr constant [37 x i8] c"could not determine polymorphic type\00", align 1
@.str.31 = private unnamed_addr constant [43 x i8] c"could not find array type for data type %s\00", align 1
@__func__.resolve_anyarray_from_others = private unnamed_addr constant [29 x i8] c"resolve_anyarray_from_others\00", align 1

; Function Attrs: nounwind uwtable
define internal void @resolve_anyarray_from_others(ptr noundef %0) #0 {
  %2 = alloca ptr, align 8
  %3 = alloca i32, align 4
  store ptr %0, ptr %2, align 8
  %4 = load ptr, ptr %2, align 8
  %5 = getelementptr inbounds nuw %struct.polymorphic_actuals, ptr %4, i32 0, i32 0
  %6 = load i32, ptr %5, align 4
  %7 = icmp ne i32 %6, 0
  br i1 %7, label %10, label %8

8:                                                ; preds = %1
  %9 = load ptr, ptr %2, align 8
  call void @resolve_anyelement_from_others(ptr noundef %9)
  br label %10

10:                                               ; preds = %8, %1
  %11 = load ptr, ptr %2, align 8
  %12 = getelementptr inbounds nuw %struct.polymorphic_actuals, ptr %11, i32 0, i32 0
  %13 = load i32, ptr %12, align 4
  %14 = icmp ne i32 %13, 0
  br i1 %14, label %15, label %42

15:                                               ; preds = %10
  call void @llvm.lifetime.start.p0(i64 4, ptr %3) #7
  %16 = load ptr, ptr %2, align 8
  %17 = getelementptr inbounds nuw %struct.polymorphic_actuals, ptr %16, i32 0, i32 0
  %18 = load i32, ptr %17, align 4
  %19 = call i32 @get_array_type(i32 noundef %18)
  store i32 %19, ptr %3, align 4
  %20 = load i32, ptr %3, align 4
  %21 = icmp ne i32 %20, 0
  br i1 %21, label %38, label %22

22:                                               ; preds = %15
  br label %23

23:                                               ; preds = %22
  br i1 true, label %24, label %26

24:                                               ; preds = %23
  %25 = call zeroext i1 @errstart_cold(i32 noundef 21, ptr noundef null) #8
  br i1 %25, label %28, label %35

26:                                               ; preds = %23
  %27 = call zeroext i1 @errstart(i32 noundef 21, ptr noundef null)
  br i1 %27, label %28, label %35

28:                                               ; preds = %26, %24
  %29 = call i32 @errcode(i32 noundef 67137668)
  %30 = load ptr, ptr %2, align 8
  %31 = getelementptr inbounds nuw %struct.polymorphic_actuals, ptr %30, i32 0, i32 0
  %32 = load i32, ptr %31, align 4
  %33 = call ptr @format_type_be(i32 noundef %32)
  %34 = call i32 (ptr, ...) @errmsg(ptr noundef @.str.31, ptr noundef %33)
  call void @errfinish(ptr noundef @.str.1, i32 noundef 670, ptr noundef @__func__.resolve_anyarray_from_others)
  br label %35

35:                                               ; preds = %28, %26, %24
  unreachable

36:                                               ; No predecessors!
  br label %37

37:                                               ; preds = %36
  br label %38

38:                                               ; preds = %37, %15
  %39 = load i32, ptr %3, align 4
  %40 = load ptr, ptr %2, align 8
  %41 = getelementptr inbounds nuw %struct.polymorphic_actuals, ptr %40, i32 0, i32 1
  store i32 %39, ptr %41, align 4
  call void @llvm.lifetime.end.p0(i64 4, ptr %3) #7
  br label %52

42:                                               ; preds = %10
  br label %43

43:                                               ; preds = %42
  br i1 true, label %44, label %46

44:                                               ; preds = %43
  %45 = call zeroext i1 @errstart_cold(i32 noundef 21, ptr noundef null) #8
  br i1 %45, label %48, label %50

46:                                               ; preds = %43
  %47 = call zeroext i1 @errstart(i32 noundef 21, ptr noundef null)
  br i1 %47, label %48, label %50

48:                                               ; preds = %46, %44
  %49 = call i32 (ptr, ...) @errmsg_internal(ptr noundef @.str.30)
  call void @errfinish(ptr noundef @.str.1, i32 noundef 674, ptr noundef @__func__.resolve_anyarray_from_others)
  br label %50

50:                                               ; preds = %48, %46, %44
  unreachable

51:                                               ; No predecessors!
  br label %52

52:                                               ; preds = %51, %38
  ret void
}