; Function Attrs: nounwind uwtable
define internal fastcc void @resolve_anyarray_from_others(ptr noundef nonnull captures(none) %0) unnamed_addr #0 {
  %2 = load i32, ptr %0, align 4
  %.not = icmp eq i32 %2, 0
  br i1 %.not, label %3, label %.thread

3:                                                ; preds = %1
  tail call fastcc void @resolve_anyelement_from_others(ptr noundef %0)
  %.pr = load i32, ptr %0, align 4
  %.not8 = icmp eq i32 %.pr, 0
  br i1 %.not8, label %14, label %.thread

.thread:                                          ; preds = %1, %3
  %4 = phi i32 [ %.pr, %3 ], [ %2, %1 ]
  %5 = tail call i32 @get_array_type(i32 noundef %4) #8
  %.not9 = icmp eq i32 %5, 0
  br i1 %.not9, label %6, label %12

6:                                                ; preds = %.thread
  %7 = tail call zeroext i1 @errstart_cold(i32 noundef 21, ptr noundef null) #9
  tail call void @llvm.assume(i1 %7)
  %8 = tail call i32 @errcode(i32 noundef 67137668) #8
  %9 = load i32, ptr %0, align 4
  %10 = tail call ptr @format_type_be(i32 noundef %9) #8
  %11 = tail call i32 (ptr, ...) @errmsg(ptr noundef nonnull @.str.31, ptr noundef %10) #8
  tail call void @errfinish(ptr noundef nonnull @.str.1, i32 noundef 670, ptr noundef nonnull @__func__.resolve_anyarray_from_others) #8
  unreachable

12:                                               ; preds = %.thread
  %13 = getelementptr inbounds nuw i8, ptr %0, i64 4
  store i32 %5, ptr %13, align 4
  ret void

14:                                               ; preds = %3
  %15 = tail call zeroext i1 @errstart_cold(i32 noundef 21, ptr noundef null) #9
  tail call void @llvm.assume(i1 %15)
  %16 = tail call i32 (ptr, ...) @errmsg_internal(ptr noundef nonnull @.str.30) #8
  tail call void @errfinish(ptr noundef nonnull @.str.1, i32 noundef 674, ptr noundef nonnull @__func__.resolve_anyarray_from_others) #8
  unreachable
}